; Function Attrs: nounwind uwtable
define dso_local void @add_other_rels_to_query(ptr noundef %0) local_unnamed_addr #0 {
  %2 = getelementptr inbounds nuw i8, ptr %0, i64 64
  %3 = load i32, ptr %2, align 8
  %4 = icmp sgt i32 %3, 1
  br i1 %4, label %.lr.ph, label %._crit_edge

.lr.ph:                                           ; preds = %1
  %5 = getelementptr inbounds nuw i8, ptr %0, i64 56
  %6 = getelementptr inbounds nuw i8, ptr %0, i64 72
  br label %7

7:                                                ; preds = %.lr.ph, %25
  %8 = phi i32 [ %3, %.lr.ph ], [ %26, %25 ]
  %indvars.iv = phi i64 [ 1, %.lr.ph ], [ %indvars.iv.next, %25 ]
  %9 = load ptr, ptr %5, align 8
  %10 = getelementptr inbounds nuw ptr, ptr %9, i64 %indvars.iv
  %11 = load ptr, ptr %10, align 8
  %12 = load ptr, ptr %6, align 8
  %13 = getelementptr inbounds nuw ptr, ptr %12, i64 %indvars.iv
  %14 = load ptr, ptr %13, align 8
  %15 = icmp eq ptr %11, null
  br i1 %15, label %25, label %16

16:                                               ; preds = %7
  %17 = getelementptr inbounds nuw i8, ptr %11, i64 4
  %18 = load i32, ptr %17, align 4
  %.not = icmp eq i32 %18, 0
  br i1 %.not, label %19, label %25

19:                                               ; preds = %16
  %20 = getelementptr inbounds nuw i8, ptr %14, i64 32
  %21 = load i8, ptr %20, align 8, !range !4, !noundef !5
  %22 = trunc nuw i8 %21 to i1
  br i1 %22, label %23, label %25

23:                                               ; preds = %19
  %24 = trunc nuw nsw i64 %indvars.iv to i32
  tail call void @expand_inherited_rtentry(ptr noundef nonnull %0, ptr noundef nonnull %11, ptr noundef nonnull %14, i32 noundef %24) #7
  %.pre = load i32, ptr %2, align 8
  br label %25

25:                                               ; preds = %19, %23, %16, %7
  %26 = phi i32 [ %8, %19 ], [ %.pre, %23 ], [ %8, %16 ], [ %8, %7 ]
  %indvars.iv.next = add nuw nsw i64 %indvars.iv, 1
  %27 = sext i32 %26 to i64
  %28 = icmp slt i64 %indvars.iv.next, %27
  br i1 %28, label %7, label %._crit_edge, !llvm.loop !6

._crit_edge:                                      ; preds = %25, %1
  ret void
}